target datalayout = "e-m:e-p270:32:32-p271:32:32-p272:64:64-i64:64-i128:128-f80:128-n8:16:32:64-S128"
target triple = "x86_64-pc-linux-gnu"

%struct.PROV_MAC_CTX = type { ptr, ptr, ptr, ptr }

; Function Attrs: nounwind uwtable
define internal i32 @mac_digest_sign_final(ptr noundef %0, ptr noundef %1, ptr noundef %2, i64 noundef %3) #0 {
  %5 = alloca i32, align 4
  %6 = alloca ptr, align 8
  %7 = alloca ptr, align 8
  %8 = alloca ptr, align 8
  %9 = alloca i64, align 8
  %10 = alloca ptr, align 8
  %11 = alloca i32, align 4
  store ptr %0, ptr %6, align 8, !tbaa !3
  store ptr %1, ptr %7, align 8, !tbaa !7
  store ptr %2, ptr %8, align 8, !tbaa !30
  store i64 %3, ptr %9, align 8, !tbaa !29
  call void @llvm.lifetime.start.p0(i64 8, ptr %10) #4
  %12 = load ptr, ptr %6, align 8, !tbaa !3
  store ptr %12, ptr %10, align 8, !tbaa !3
  %13 = call i32 @ossl_prov_is_running()
  %14 = icmp ne i32 %13, 0
  br i1 %14, label %15, label %23

15:                                               ; preds = %4
  %16 = load ptr, ptr %10, align 8, !tbaa !3
  %17 = icmp eq ptr %16, null
  br i1 %17, label %23, label %18

18:                                               ; preds = %15
  %19 = load ptr, ptr %10, align 8, !tbaa !3
  %20 = getelementptr inbounds nuw %struct.PROV_MAC_CTX, ptr %19, i32 0, i32 3
  %21 = load ptr, ptr %20, align 8, !tbaa !25
  %22 = icmp eq ptr %21, null
  br i1 %22, label %23, label %24

23:                                               ; preds = %18, %15, %4
  store i32 0, ptr %5, align 4
  store i32 1, ptr %11, align 4
  br label %32

24:                                               ; preds = %18
  %25 = load ptr, ptr %10, align 8, !tbaa !3
  %26 = getelementptr inbounds nuw %struct.PROV_MAC_CTX, ptr %25, i32 0, i32 3
  %27 = load ptr, ptr %26, align 8, !tbaa !25
  %28 = load ptr, ptr %7, align 8, !tbaa !7
  %29 = load ptr, ptr %8, align 8, !tbaa !30
  %30 = load i64, ptr %9, align 8, !tbaa !29
  %31 = call i32 @EVP_MAC_final(ptr noundef %27, ptr noundef %28, ptr noundef %29, i64 noundef %30)
  store i32 %31, ptr %5, align 4
  store i32 1, ptr %11, align 4
  br label %32

32:                                               ; preds = %24, %23
  call void @llvm.lifetime.end.p0(i64 8, ptr %10) #4
  %33 = load i32, ptr %5, align 4
  ret i32 %33
}