; Function Attrs: nounwind uwtable
define internal i32 @mac_digest_sign_final(ptr noundef readonly captures(address_is_null) %0, ptr noundef %1, ptr noundef %2, i64 noundef %3) #0 {
  %5 = tail call i32 @ossl_prov_is_running() #3
  %6 = icmp eq i32 %5, 0
  %7 = icmp eq ptr %0, null
  %or.cond = or i1 %7, %6
  br i1 %or.cond, label %14, label %8

8:                                                ; preds = %4
  %9 = getelementptr inbounds nuw i8, ptr %0, i64 24
  %10 = load ptr, ptr %9, align 8, !tbaa !21
  %11 = icmp eq ptr %10, null
  br i1 %11, label %14, label %12

12:                                               ; preds = %8
  %13 = tail call i32 @EVP_MAC_final(ptr noundef nonnull %10, ptr noundef %1, ptr noundef %2, i64 noundef %3) #3
  br label %14

14:                                               ; preds = %4, %8, %12
  %.0 = phi i32 [ %13, %12 ], [ 0, %8 ], [ 0, %4 ]
  ret i32 %.0
}